; Function Attrs: nounwind uwtable
define dso_local void @ExecTypeSetColNames(ptr noundef %0, ptr noundef readonly captures(address_is_null) %1) local_unnamed_addr #1 {
  %3 = getelementptr inbounds nuw i8, ptr %1, i64 4
  %4 = getelementptr inbounds nuw i8, ptr %1, i64 16
  %.not = icmp eq ptr %1, null
  %invariant.gep = getelementptr i8, ptr %0, i64 24
  br i1 %.not, label %.thread, label %.lr.ph.split

.lr.ph.split:                                     ; preds = %2
  %5 = load i32, ptr %3, align 4
  %6 = icmp sgt i32 %5, 0
  br i1 %6, label %.lr.ph33, label %.thread

.lr.ph33:                                         ; preds = %.lr.ph.split, %26
  %7 = phi i32 [ %27, %26 ], [ %5, %.lr.ph.split ]
  %indvars.iv = phi i64 [ %indvars.iv.next, %26 ], [ 0, %.lr.ph.split ]
  %8 = load ptr, ptr %4, align 8
  %9 = getelementptr inbounds nuw %union.ListCell, ptr %8, i64 %indvars.iv
  %10 = load ptr, ptr %9, align 8
  %11 = getelementptr inbounds nuw i8, ptr %10, i64 8
  %12 = load ptr, ptr %11, align 8
  %13 = load i32, ptr %0, align 8
  %14 = sext i32 %13 to i64
  %.not19 = icmp slt i64 %indvars.iv, %14
  br i1 %.not19, label %15, label %.thread

15:                                               ; preds = %.lr.ph33
  %16 = shl nsw i64 %14, 4
  %gep = getelementptr i8, ptr %invariant.gep, i64 %16
  %17 = getelementptr inbounds nuw %struct.FormData_pg_attribute, ptr %gep, i64 %indvars.iv
  %indvars.iv.next = add nuw nsw i64 %indvars.iv, 1
  %18 = load i8, ptr %12, align 1
  %19 = icmp eq i8 %18, 0
  br i1 %19, label %26, label %20

20:                                               ; preds = %15
  %21 = getelementptr inbounds nuw i8, ptr %17, i64 91
  %22 = load i8, ptr %21, align 1, !range !5, !noundef !6
  %23 = trunc nuw i8 %22 to i1
  br i1 %23, label %26, label %24

24:                                               ; preds = %20
  %25 = getelementptr inbounds nuw i8, ptr %17, i64 4
  tail call void @namestrcpy(ptr noundef nonnull %25, ptr noundef nonnull %12) #14
  %.pre = load i32, ptr %3, align 4
  br label %26

26:                                               ; preds = %24, %20, %15
  %27 = phi i32 [ %.pre, %24 ], [ %7, %20 ], [ %7, %15 ]
  %28 = sext i32 %27 to i64
  %29 = icmp slt i64 %indvars.iv.next, %28
  br i1 %29, label %.lr.ph33, label %.thread

.thread:                                          ; preds = %.lr.ph33, %26, %.lr.ph.split, %2
  ret void
}